; ModuleID = '20/777.c'
source_filename = "20/777.c"
target datalayout = "e-m:e-p270:32:32-p271:32:32-p272:64:64-i64:64-f80:128-n8:16:32:64-S128"
target triple = "x86_64-pc-linux-gnu"

@.str = private unnamed_addr constant [5 x i8] c"%s%s\00", align 1
@.str.1 = private unnamed_addr constant [3 x i8] c"%s\00", align 1
@.str.2 = private unnamed_addr constant [2 x i8] c"\0A\00", align 1

; Function Attrs: noinline nounwind uwtable
define dso_local void @main() #0 {
  %1 = alloca [100 x i8], align 16
  %2 = alloca [100 x i8], align 16
  %3 = alloca i32, align 4
  %4 = alloca i32, align 4
  %5 = alloca i32, align 4
  %6 = alloca i32, align 4
  %7 = alloca [20 x i32], align 16
  %8 = alloca i8, align 1
  %9 = alloca i32, align 4
  br label %10

10:                                               ; preds = %104, %0
  %11 = getelementptr inbounds [100 x i8], [100 x i8]* %1, i64 0, i64 0
  %12 = getelementptr inbounds [100 x i8], [100 x i8]* %2, i64 0, i64 0
  %13 = call i32 (i8*, ...) @__isoc99_scanf(i8* getelementptr inbounds ([5 x i8], [5 x i8]* @.str, i64 0, i64 0), i8* %11, i8* %12)
  %14 = icmp ne i32 %13, -1
  br i1 %14, label %15, label %130

15:                                               ; preds = %10
  %16 = getelementptr inbounds [100 x i8], [100 x i8]* %1, i64 0, i64 0
  %17 = call i64 @strlen(i8* %16) #3
  %18 = trunc i64 %17 to i32
  store i32 %18, i32* %3, align 4
  store i32 0, i32* %4, align 4
  br label %19

19:                                               ; preds = %33, %15
  %20 = load i32, i32* %4, align 4
  %21 = load i32, i32* %3, align 4
  %22 = sub nsw i32 %21, 1
  %23 = icmp sle i32 %20, %22
  br i1 %23, label %24, label %36

24:                                               ; preds = %19
  %25 = load i32, i32* %4, align 4
  %26 = sext i32 %25 to i64
  %27 = getelementptr inbounds [100 x i8], [100 x i8]* %1, i64 0, i64 %26
  %28 = load i8, i8* %27, align 1
  %29 = sext i8 %28 to i32
  %30 = load i32, i32* %4, align 4
  %31 = sext i32 %30 to i64
  %32 = getelementptr inbounds [20 x i32], [20 x i32]* %7, i64 0, i64 %31
  store i32 %29, i32* %32, align 4
  br label %33

33:                                               ; preds = %24
  %34 = load i32, i32* %4, align 4
  %35 = add nsw i32 %34, 1
  store i32 %35, i32* %4, align 4
  br label %19

36:                                               ; preds = %19
  store i32 1, i32* %5, align 4
  br label %37

37:                                               ; preds = %57, %36
  %38 = load i32, i32* %5, align 4
  %39 = load i32, i32* %3, align 4
  %40 = sub nsw i32 %39, 1
  %41 = icmp sle i32 %38, %40
  br i1 %41, label %42, label %60

42:                                               ; preds = %37
  %43 = getelementptr inbounds [20 x i32], [20 x i32]* %7, i64 0, i64 0
  %44 = load i32, i32* %43, align 16
  %45 = load i32, i32* %5, align 4
  %46 = sext i32 %45 to i64
  %47 = getelementptr inbounds [20 x i32], [20 x i32]* %7, i64 0, i64 %46
  %48 = load i32, i32* %47, align 4
  %49 = icmp slt i32 %44, %48
  br i1 %49, label %50, label %56

50:                                               ; preds = %42
  %51 = load i32, i32* %5, align 4
  %52 = sext i32 %51 to i64
  %53 = getelementptr inbounds [20 x i32], [20 x i32]* %7, i64 0, i64 %52
  %54 = load i32, i32* %53, align 4
  %55 = getelementptr inbounds [20 x i32], [20 x i32]* %7, i64 0, i64 0
  store i32 %54, i32* %55, align 16
  br label %56

56:                                               ; preds = %50, %42
  br label %57

57:                                               ; preds = %56
  %58 = load i32, i32* %5, align 4
  %59 = add nsw i32 %58, 1
  store i32 %59, i32* %5, align 4
  br label %37

60:                                               ; preds = %37
  %61 = getelementptr inbounds [20 x i32], [20 x i32]* %7, i64 0, i64 0
  %62 = load i32, i32* %61, align 16
  %63 = trunc i32 %62 to i8
  store i8 %63, i8* %8, align 1
  store i32 0, i32* %4, align 4
  br label %64

64:                                               ; preds = %81, %60
  %65 = load i32, i32* %4, align 4
  %66 = load i32, i32* %3, align 4
  %67 = sub nsw i32 %66, 1
  %68 = icmp sle i32 %65, %67
  br i1 %68, label %69, label %84

69:                                               ; preds = %64
  %70 = load i32, i32* %4, align 4
  %71 = sext i32 %70 to i64
  %72 = getelementptr inbounds [100 x i8], [100 x i8]* %1, i64 0, i64 %71
  %73 = load i8, i8* %72, align 1
  %74 = sext i8 %73 to i32
  %75 = load i8, i8* %8, align 1
  %76 = sext i8 %75 to i32
  %77 = icmp eq i32 %74, %76
  br i1 %77, label %78, label %80

78:                                               ; preds = %69
  %79 = load i32, i32* %4, align 4
  store i32 %79, i32* %9, align 4
  br label %84

80:                                               ; preds = %69
  br label %81

81:                                               ; preds = %80
  %82 = load i32, i32* %4, align 4
  %83 = add nsw i32 %82, 1
  store i32 %83, i32* %4, align 4
  br label %64

84:                                               ; preds = %78, %64
  %85 = load i32, i32* %3, align 4
  %86 = add nsw i32 %85, 2
  store i32 %86, i32* %4, align 4
  br label %87

87:                                               ; preds = %101, %84
  %88 = load i32, i32* %4, align 4
  %89 = load i32, i32* %9, align 4
  %90 = add nsw i32 %89, 1
  %91 = icmp sge i32 %88, %90
  br i1 %91, label %92, label %104

92:                                               ; preds = %87
  %93 = load i32, i32* %4, align 4
  %94 = sext i32 %93 to i64
  %95 = getelementptr inbounds [100 x i8], [100 x i8]* %1, i64 0, i64 %94
  %96 = load i8, i8* %95, align 1
  %97 = load i32, i32* %4, align 4
  %98 = add nsw i32 %97, 3
  %99 = sext i32 %98 to i64
  %100 = getelementptr inbounds [100 x i8], [100 x i8]* %1, i64 0, i64 %99
  store i8 %96, i8* %100, align 1
  br label %101

101:                                              ; preds = %92
  %102 = load i32, i32* %4, align 4
  %103 = add nsw i32 %102, -1
  store i32 %103, i32* %4, align 4
  br label %87

104:                                              ; preds = %87
  %105 = getelementptr inbounds [100 x i8], [100 x i8]* %2, i64 0, i64 0
  %106 = load i8, i8* %105, align 16
  %107 = load i32, i32* %9, align 4
  %108 = add nsw i32 %107, 1
  %109 = sext i32 %108 to i64
  %110 = getelementptr inbounds [100 x i8], [100 x i8]* %1, i64 0, i64 %109
  store i8 %106, i8* %110, align 1
  %111 = getelementptr inbounds [100 x i8], [100 x i8]* %2, i64 0, i64 1
  %112 = load i8, i8* %111, align 1
  %113 = load i32, i32* %9, align 4
  %114 = add nsw i32 %113, 2
  %115 = sext i32 %114 to i64
  %116 = getelementptr inbounds [100 x i8], [100 x i8]* %1, i64 0, i64 %115
  store i8 %112, i8* %116, align 1
  %117 = getelementptr inbounds [100 x i8], [100 x i8]* %2, i64 0, i64 2
  %118 = load i8, i8* %117, align 2
  %119 = load i32, i32* %9, align 4
  %120 = add nsw i32 %119, 3
  %121 = sext i32 %120 to i64
  %122 = getelementptr inbounds [100 x i8], [100 x i8]* %1, i64 0, i64 %121
  store i8 %118, i8* %122, align 1
  %123 = load i32, i32* %3, align 4
  %124 = add nsw i32 %123, 3
  %125 = sext i32 %124 to i64
  %126 = getelementptr inbounds [100 x i8], [100 x i8]* %1, i64 0, i64 %125
  store i8 0, i8* %126, align 1
  %127 = getelementptr inbounds [100 x i8], [100 x i8]* %1, i64 0, i64 0
  %128 = call i32 (i8*, ...) @printf(i8* getelementptr inbounds ([3 x i8], [3 x i8]* @.str.1, i64 0, i64 0), i8* %127)
  %129 = call i32 (i8*, ...) @printf(i8* getelementptr inbounds ([2 x i8], [2 x i8]* @.str.2, i64 0, i64 0))
  br label %10

130:                                              ; preds = %10
  ret void
}

declare dso_local i32 @__isoc99_scanf(i8*, ...) #1

; Function Attrs: nounwind readonly
declare dso_local i64 @strlen(i8*) #2

declare dso_local i32 @printf(i8*, ...) #1


!llvm.module.flags = !{!0}
!llvm.ident = !{!1}

!0 = !{i32 1, !"wchar_size", i32 4}
!1 = !{!"clang version 10.0.0-4ubuntu1 "}
